target datalayout = "e-m:e-p270:32:32-p271:32:32-p272:64:64-i64:64-i128:128-f80:128-n8:16:32:64-S128"
target triple = "x86_64-pc-linux-gnu"

@hf_mpeg_descr_satellite_delivery_frequency = internal global i32 0, align 4
@hf_mpeg_descr_satellite_delivery_orbital_position = internal global i32 0, align 4
@hf_mpeg_descr_satellite_delivery_west_east_flag = internal global i32 0, align 4
@hf_mpeg_descr_satellite_delivery_polarization = internal global i32 0, align 4
@hf_mpeg_descr_satellite_delivery_roll_off = internal global i32 0, align 4
@hf_mpeg_descr_satellite_delivery_zero = internal global i32 0, align 4
@hf_mpeg_descr_satellite_delivery_modulation_system = internal global i32 0, align 4
@hf_mpeg_descr_satellite_delivery_modulation_type = internal global i32 0, align 4
@hf_mpeg_descr_satellite_delivery_symbol_rate = internal global i32 0, align 4
@hf_mpeg_descr_satellite_delivery_fec_inner = internal global i32 0, align 4
@.str.748 = private unnamed_addr constant [13 x i8] c"%3.4f MSym/s\00", align 1

; Function Attrs: null_pointer_is_valid sspstrong uwtable
define internal void @proto_mpeg_descriptor_dissect_satellite_delivery(ptr noundef %0, i32 noundef %1, ptr noundef %2) #1 {
  %4 = alloca ptr, align 8
  %5 = alloca i32, align 4
  %6 = alloca ptr, align 8
  %7 = alloca double, align 8
  %8 = alloca double, align 8
  %9 = alloca float, align 4
  %10 = alloca i8, align 1
  store ptr %0, ptr %4, align 8
  store i32 %1, ptr %5, align 4
  store ptr %2, ptr %6, align 8
  call void @llvm.lifetime.start.p0(i64 8, ptr %7) #4
  call void @llvm.lifetime.start.p0(i64 8, ptr %8) #4
  call void @llvm.lifetime.start.p0(i64 4, ptr %9) #4
  call void @llvm.lifetime.start.p0(i64 1, ptr %10) #4
  %11 = load ptr, ptr %4, align 8
  %12 = load i32, ptr %5, align 4
  %13 = call zeroext i8 @tvb_get_uint8(ptr noundef %11, i32 noundef %12)
  %14 = zext i8 %13 to i32
  %15 = and i32 %14, 240
  %16 = ashr i32 %15, 4
  %17 = mul i32 %16, 10
  %18 = load ptr, ptr %4, align 8
  %19 = load i32, ptr %5, align 4
  %20 = call zeroext i8 @tvb_get_uint8(ptr noundef %18, i32 noundef %19)
  %21 = zext i8 %20 to i32
  %22 = and i32 %21, 15
  %23 = add i32 %17, %22
  %24 = sitofp i32 %23 to double
  %25 = load ptr, ptr %4, align 8
  %26 = load i32, ptr %5, align 4
  %27 = add i32 %26, 1
  %28 = call zeroext i8 @tvb_get_uint8(ptr noundef %25, i32 noundef %27)
  %29 = zext i8 %28 to i32
  %30 = and i32 %29, 240
  %31 = ashr i32 %30, 4
  %32 = mul i32 %31, 10
  %33 = load ptr, ptr %4, align 8
  %34 = load i32, ptr %5, align 4
  %35 = add i32 %34, 1
  %36 = call zeroext i8 @tvb_get_uint8(ptr noundef %33, i32 noundef %35)
  %37 = zext i8 %36 to i32
  %38 = and i32 %37, 15
  %39 = add i32 %32, %38
  %40 = sitofp i32 %39 to double
  %41 = fdiv double %40, 1.000000e+01
  %42 = call double @llvm.fmuladd.f64(double %24, double 1.000000e+01, double %41)
  %43 = load ptr, ptr %4, align 8
  %44 = load i32, ptr %5, align 4
  %45 = add i32 %44, 2
  %46 = call zeroext i8 @tvb_get_uint8(ptr noundef %43, i32 noundef %45)
  %47 = zext i8 %46 to i32
  %48 = and i32 %47, 240
  %49 = ashr i32 %48, 4
  %50 = mul i32 %49, 10
  %51 = load ptr, ptr %4, align 8
  %52 = load i32, ptr %5, align 4
  %53 = add i32 %52, 2
  %54 = call zeroext i8 @tvb_get_uint8(ptr noundef %51, i32 noundef %53)
  %55 = zext i8 %54 to i32
  %56 = and i32 %55, 15
  %57 = add i32 %50, %56
  %58 = sitofp i32 %57 to double
  %59 = fdiv double %58, 1.000000e+03
  %60 = fadd double %42, %59
  %61 = load ptr, ptr %4, align 8
  %62 = load i32, ptr %5, align 4
  %63 = add i32 %62, 3
  %64 = call zeroext i8 @tvb_get_uint8(ptr noundef %61, i32 noundef %63)
  %65 = zext i8 %64 to i32
  %66 = and i32 %65, 240
  %67 = ashr i32 %66, 4
  %68 = mul i32 %67, 10
  %69 = load ptr, ptr %4, align 8
  %70 = load i32, ptr %5, align 4
  %71 = add i32 %70, 3
  %72 = call zeroext i8 @tvb_get_uint8(ptr noundef %69, i32 noundef %71)
  %73 = zext i8 %72 to i32
  %74 = and i32 %73, 15
  %75 = add i32 %68, %74
  %76 = sitofp i32 %75 to double
  %77 = fdiv double %76, 1.000000e+05
  %78 = fadd double %60, %77
  store double %78, ptr %7, align 8
  %79 = load ptr, ptr %6, align 8
  %80 = load i32, ptr @hf_mpeg_descr_satellite_delivery_frequency, align 4
  %81 = load ptr, ptr %4, align 8
  %82 = load i32, ptr %5, align 4
  %83 = load double, ptr %7, align 8
  %84 = call ptr @proto_tree_add_double(ptr noundef %79, i32 noundef %80, ptr noundef %81, i32 noundef %82, i32 noundef 4, double noundef %83)
  %85 = load i32, ptr %5, align 4
  %86 = add i32 %85, 4
  store i32 %86, ptr %5, align 4
  %87 = load ptr, ptr %4, align 8
  %88 = load i32, ptr %5, align 4
  %89 = call zeroext i8 @tvb_get_uint8(ptr noundef %87, i32 noundef %88)
  %90 = zext i8 %89 to i32
  %91 = and i32 %90, 240
  %92 = ashr i32 %91, 4
  %93 = mul i32 %92, 10
  %94 = load ptr, ptr %4, align 8
  %95 = load i32, ptr %5, align 4
  %96 = call zeroext i8 @tvb_get_uint8(ptr noundef %94, i32 noundef %95)
  %97 = zext i8 %96 to i32
  %98 = and i32 %97, 15
  %99 = add i32 %93, %98
  %100 = sitofp i32 %99 to float
  %101 = load ptr, ptr %4, align 8
  %102 = load i32, ptr %5, align 4
  %103 = add i32 %102, 1
  %104 = call zeroext i8 @tvb_get_uint8(ptr noundef %101, i32 noundef %103)
  %105 = zext i8 %104 to i32
  %106 = and i32 %105, 240
  %107 = ashr i32 %106, 4
  %108 = mul i32 %107, 10
  %109 = load ptr, ptr %4, align 8
  %110 = load i32, ptr %5, align 4
  %111 = add i32 %110, 1
  %112 = call zeroext i8 @tvb_get_uint8(ptr noundef %109, i32 noundef %111)
  %113 = zext i8 %112 to i32
  %114 = and i32 %113, 15
  %115 = add i32 %108, %114
  %116 = sitofp i32 %115 to float
  %117 = fdiv float %116, 1.000000e+01
  %118 = call float @llvm.fmuladd.f32(float %100, float 1.000000e+01, float %117)
  store float %118, ptr %9, align 4
  %119 = load ptr, ptr %6, align 8
  %120 = load i32, ptr @hf_mpeg_descr_satellite_delivery_orbital_position, align 4
  %121 = load ptr, ptr %4, align 8
  %122 = load i32, ptr %5, align 4
  %123 = load float, ptr %9, align 4
  %124 = call ptr @proto_tree_add_float(ptr noundef %119, i32 noundef %120, ptr noundef %121, i32 noundef %122, i32 noundef 2, float noundef %123)
  %125 = load i32, ptr %5, align 4
  %126 = add i32 %125, 2
  store i32 %126, ptr %5, align 4
  %127 = load ptr, ptr %4, align 8
  %128 = load i32, ptr %5, align 4
  %129 = call zeroext i8 @tvb_get_uint8(ptr noundef %127, i32 noundef %128)
  %130 = zext i8 %129 to i32
  %131 = and i32 %130, 4
  %132 = trunc i32 %131 to i8
  store i8 %132, ptr %10, align 1
  %133 = load ptr, ptr %6, align 8
  %134 = load i32, ptr @hf_mpeg_descr_satellite_delivery_west_east_flag, align 4
  %135 = load ptr, ptr %4, align 8
  %136 = load i32, ptr %5, align 4
  %137 = call ptr @proto_tree_add_item(ptr noundef %133, i32 noundef %134, ptr noundef %135, i32 noundef %136, i32 noundef 1, i32 noundef 0)
  %138 = load ptr, ptr %6, align 8
  %139 = load i32, ptr @hf_mpeg_descr_satellite_delivery_polarization, align 4
  %140 = load ptr, ptr %4, align 8
  %141 = load i32, ptr %5, align 4
  %142 = call ptr @proto_tree_add_item(ptr noundef %138, i32 noundef %139, ptr noundef %140, i32 noundef %141, i32 noundef 1, i32 noundef 0)
  %143 = load i8, ptr %10, align 1
  %144 = icmp ne i8 %143, 0
  br i1 %144, label %145, label %151

145:                                              ; preds = %3
  %146 = load ptr, ptr %6, align 8
  %147 = load i32, ptr @hf_mpeg_descr_satellite_delivery_roll_off, align 4
  %148 = load ptr, ptr %4, align 8
  %149 = load i32, ptr %5, align 4
  %150 = call ptr @proto_tree_add_item(ptr noundef %146, i32 noundef %147, ptr noundef %148, i32 noundef %149, i32 noundef 1, i32 noundef 0)
  br label %157

151:                                              ; preds = %3
  %152 = load ptr, ptr %6, align 8
  %153 = load i32, ptr @hf_mpeg_descr_satellite_delivery_zero, align 4
  %154 = load ptr, ptr %4, align 8
  %155 = load i32, ptr %5, align 4
  %156 = call ptr @proto_tree_add_item(ptr noundef %152, i32 noundef %153, ptr noundef %154, i32 noundef %155, i32 noundef 1, i32 noundef 0)
  br label %157

157:                                              ; preds = %151, %145
  %158 = load ptr, ptr %6, align 8
  %159 = load i32, ptr @hf_mpeg_descr_satellite_delivery_modulation_system, align 4
  %160 = load ptr, ptr %4, align 8
  %161 = load i32, ptr %5, align 4
  %162 = call ptr @proto_tree_add_item(ptr noundef %158, i32 noundef %159, ptr noundef %160, i32 noundef %161, i32 noundef 1, i32 noundef 0)
  %163 = load ptr, ptr %6, align 8
  %164 = load i32, ptr @hf_mpeg_descr_satellite_delivery_modulation_type, align 4
  %165 = load ptr, ptr %4, align 8
  %166 = load i32, ptr %5, align 4
  %167 = call ptr @proto_tree_add_item(ptr noundef %163, i32 noundef %164, ptr noundef %165, i32 noundef %166, i32 noundef 1, i32 noundef 0)
  %168 = load i32, ptr %5, align 4
  %169 = add i32 %168, 1
  store i32 %169, ptr %5, align 4
  %170 = load ptr, ptr %4, align 8
  %171 = load i32, ptr %5, align 4
  %172 = call zeroext i8 @tvb_get_uint8(ptr noundef %170, i32 noundef %171)
  %173 = zext i8 %172 to i32
  %174 = and i32 %173, 240
  %175 = ashr i32 %174, 4
  %176 = mul i32 %175, 10
  %177 = load ptr, ptr %4, align 8
  %178 = load i32, ptr %5, align 4
  %179 = call zeroext i8 @tvb_get_uint8(ptr noundef %177, i32 noundef %178)
  %180 = zext i8 %179 to i32
  %181 = and i32 %180, 15
  %182 = add i32 %176, %181
  %183 = sitofp i32 %182 to double
  %184 = load ptr, ptr %4, align 8
  %185 = load i32, ptr %5, align 4
  %186 = add i32 %185, 1
  %187 = call zeroext i8 @tvb_get_uint8(ptr noundef %184, i32 noundef %186)
  %188 = zext i8 %187 to i32
  %189 = and i32 %188, 240
  %190 = ashr i32 %189, 4
  %191 = mul i32 %190, 10
  %192 = load ptr, ptr %4, align 8
  %193 = load i32, ptr %5, align 4
  %194 = add i32 %193, 1
  %195 = call zeroext i8 @tvb_get_uint8(ptr noundef %192, i32 noundef %194)
  %196 = zext i8 %195 to i32
  %197 = and i32 %196, 15
  %198 = add i32 %191, %197
  %199 = sitofp i32 %198 to double
  %200 = fdiv double %199, 1.000000e+01
  %201 = call double @llvm.fmuladd.f64(double %183, double 1.000000e+01, double %200)
  %202 = load ptr, ptr %4, align 8
  %203 = load i32, ptr %5, align 4
  %204 = add i32 %203, 2
  %205 = call zeroext i8 @tvb_get_uint8(ptr noundef %202, i32 noundef %204)
  %206 = zext i8 %205 to i32
  %207 = and i32 %206, 240
  %208 = ashr i32 %207, 4
  %209 = mul i32 %208, 10
  %210 = load ptr, ptr %4, align 8
  %211 = load i32, ptr %5, align 4
  %212 = add i32 %211, 2
  %213 = call zeroext i8 @tvb_get_uint8(ptr noundef %210, i32 noundef %212)
  %214 = zext i8 %213 to i32
  %215 = and i32 %214, 15
  %216 = add i32 %209, %215
  %217 = sitofp i32 %216 to double
  %218 = fdiv double %217, 1.000000e+03
  %219 = fadd double %201, %218
  %220 = load ptr, ptr %4, align 8
  %221 = load i32, ptr %5, align 4
  %222 = add i32 %221, 3
  %223 = call zeroext i8 @tvb_get_uint8(ptr noundef %220, i32 noundef %222)
  %224 = zext i8 %223 to i32
  %225 = ashr i32 %224, 4
  %226 = and i32 %225, 240
  %227 = ashr i32 %226, 4
  %228 = mul i32 %227, 10
  %229 = load ptr, ptr %4, align 8
  %230 = load i32, ptr %5, align 4
  %231 = add i32 %230, 3
  %232 = call zeroext i8 @tvb_get_uint8(ptr noundef %229, i32 noundef %231)
  %233 = zext i8 %232 to i32
  %234 = ashr i32 %233, 4
  %235 = and i32 %234, 15
  %236 = add i32 %228, %235
  %237 = sitofp i32 %236 to double
  %238 = fdiv double %237, 1.000000e+04
  %239 = fadd double %219, %238
  store double %239, ptr %8, align 8
  %240 = load ptr, ptr %6, align 8
  %241 = load i32, ptr @hf_mpeg_descr_satellite_delivery_symbol_rate, align 4
  %242 = load ptr, ptr %4, align 8
  %243 = load i32, ptr %5, align 4
  %244 = load double, ptr %8, align 8
  %245 = load double, ptr %8, align 8
  %246 = call ptr (ptr, i32, ptr, i32, i32, double, ptr, ...) @proto_tree_add_double_format_value(ptr noundef %240, i32 noundef %241, ptr noundef %242, i32 noundef %243, i32 noundef 4, double noundef %244, ptr noundef @.str.748, double noundef %245)
  %247 = load i32, ptr %5, align 4
  %248 = add i32 %247, 3
  store i32 %248, ptr %5, align 4
  %249 = load ptr, ptr %6, align 8
  %250 = load i32, ptr @hf_mpeg_descr_satellite_delivery_fec_inner, align 4
  %251 = load ptr, ptr %4, align 8
  %252 = load i32, ptr %5, align 4
  %253 = call ptr @proto_tree_add_item(ptr noundef %249, i32 noundef %250, ptr noundef %251, i32 noundef %252, i32 noundef 1, i32 noundef 0)
  call void @llvm.lifetime.end.p0(i64 1, ptr %10) #4
  call void @llvm.lifetime.end.p0(i64 4, ptr %9) #4
  call void @llvm.lifetime.end.p0(i64 8, ptr %8) #4
  call void @llvm.lifetime.end.p0(i64 8, ptr %7) #4
  ret void
}