; Function Attrs: null_pointer_is_valid sspstrong uwtable
define internal fastcc void @proto_mpeg_descriptor_dissect_satellite_delivery(ptr noundef %0, i32 noundef %1, ptr noundef %2) unnamed_addr #1 {
  %4 = tail call zeroext i8 @tvb_get_uint8(ptr noundef %0, i32 noundef %1)
  %5 = lshr i8 %4, 4
  %narrow = mul nuw i8 %5, 10
  %6 = zext i8 %narrow to i32
  %7 = tail call zeroext i8 @tvb_get_uint8(ptr noundef %0, i32 noundef %1)
  %8 = and i8 %7, 15
  %9 = zext nneg i8 %8 to i32
  %10 = add nuw nsw i32 %6, %9
  %11 = uitofp nneg i32 %10 to double
  %12 = add i32 %1, 1
  %13 = tail call zeroext i8 @tvb_get_uint8(ptr noundef %0, i32 noundef %12)
  %14 = lshr i8 %13, 4
  %narrow80 = mul nuw i8 %14, 10
  %15 = zext i8 %narrow80 to i32
  %16 = tail call zeroext i8 @tvb_get_uint8(ptr noundef %0, i32 noundef %12)
  %17 = and i8 %16, 15
  %18 = zext nneg i8 %17 to i32
  %19 = add nuw nsw i32 %15, %18
  %20 = uitofp nneg i32 %19 to double
  %21 = fdiv double %20, 1.000000e+01
  %22 = tail call double @llvm.fmuladd.f64(double %11, double 1.000000e+01, double %21)
  %23 = add i32 %1, 2
  %24 = tail call zeroext i8 @tvb_get_uint8(ptr noundef %0, i32 noundef %23)
  %25 = lshr i8 %24, 4
  %narrow81 = mul nuw i8 %25, 10
  %26 = zext i8 %narrow81 to i32
  %27 = tail call zeroext i8 @tvb_get_uint8(ptr noundef %0, i32 noundef %23)
  %28 = and i8 %27, 15
  %29 = zext nneg i8 %28 to i32
  %30 = add nuw nsw i32 %26, %29
  %31 = uitofp nneg i32 %30 to double
  %32 = fdiv double %31, 1.000000e+03
  %33 = fadd double %22, %32
  %34 = add i32 %1, 3
  %35 = tail call zeroext i8 @tvb_get_uint8(ptr noundef %0, i32 noundef %34)
  %36 = lshr i8 %35, 4
  %narrow82 = mul nuw i8 %36, 10
  %37 = zext i8 %narrow82 to i32
  %38 = tail call zeroext i8 @tvb_get_uint8(ptr noundef %0, i32 noundef %34)
  %39 = and i8 %38, 15
  %40 = zext nneg i8 %39 to i32
  %41 = add nuw nsw i32 %37, %40
  %42 = uitofp nneg i32 %41 to double
  %43 = fdiv double %42, 1.000000e+05
  %44 = fadd double %33, %43
  %45 = load i32, ptr @hf_mpeg_descr_satellite_delivery_frequency, align 4
  %46 = tail call ptr @proto_tree_add_double(ptr noundef %2, i32 noundef %45, ptr noundef %0, i32 noundef %1, i32 noundef 4, double noundef %44)
  %47 = add i32 %1, 4
  %48 = tail call zeroext i8 @tvb_get_uint8(ptr noundef %0, i32 noundef %47)
  %49 = lshr i8 %48, 4
  %narrow83 = mul nuw i8 %49, 10
  %50 = zext i8 %narrow83 to i32
  %51 = tail call zeroext i8 @tvb_get_uint8(ptr noundef %0, i32 noundef %47)
  %52 = and i8 %51, 15
  %53 = zext nneg i8 %52 to i32
  %54 = add nuw nsw i32 %50, %53
  %55 = uitofp nneg i32 %54 to float
  %56 = add i32 %1, 5
  %57 = tail call zeroext i8 @tvb_get_uint8(ptr noundef %0, i32 noundef %56)
  %58 = lshr i8 %57, 4
  %narrow84 = mul nuw i8 %58, 10
  %59 = zext i8 %narrow84 to i32
  %60 = tail call zeroext i8 @tvb_get_uint8(ptr noundef %0, i32 noundef %56)
  %61 = and i8 %60, 15
  %62 = zext nneg i8 %61 to i32
  %63 = add nuw nsw i32 %59, %62
  %64 = uitofp nneg i32 %63 to float
  %65 = fdiv float %64, 1.000000e+01
  %66 = tail call float @llvm.fmuladd.f32(float %55, float 1.000000e+01, float %65)
  %67 = load i32, ptr @hf_mpeg_descr_satellite_delivery_orbital_position, align 4
  %68 = tail call ptr @proto_tree_add_float(ptr noundef %2, i32 noundef %67, ptr noundef %0, i32 noundef %47, i32 noundef 2, float noundef %66)
  %69 = add i32 %1, 6
  %70 = tail call zeroext i8 @tvb_get_uint8(ptr noundef %0, i32 noundef %69)
  %71 = and i8 %70, 4
  %72 = load i32, ptr @hf_mpeg_descr_satellite_delivery_west_east_flag, align 4
  %73 = tail call ptr @proto_tree_add_item(ptr noundef %2, i32 noundef %72, ptr noundef %0, i32 noundef %69, i32 noundef 1, i32 noundef 0)
  %74 = load i32, ptr @hf_mpeg_descr_satellite_delivery_polarization, align 4
  %75 = tail call ptr @proto_tree_add_item(ptr noundef %2, i32 noundef %74, ptr noundef %0, i32 noundef %69, i32 noundef 1, i32 noundef 0)
  %.not = icmp eq i8 %71, 0
  %hf_mpeg_descr_satellite_delivery_zero.val = load i32, ptr @hf_mpeg_descr_satellite_delivery_zero, align 4
  %hf_mpeg_descr_satellite_delivery_roll_off.val = load i32, ptr @hf_mpeg_descr_satellite_delivery_roll_off, align 4
  %76 = select i1 %.not, i32 %hf_mpeg_descr_satellite_delivery_zero.val, i32 %hf_mpeg_descr_satellite_delivery_roll_off.val
  %77 = tail call ptr @proto_tree_add_item(ptr noundef %2, i32 noundef %76, ptr noundef %0, i32 noundef %69, i32 noundef 1, i32 noundef 0)
  %78 = load i32, ptr @hf_mpeg_descr_satellite_delivery_modulation_system, align 4
  %79 = tail call ptr @proto_tree_add_item(ptr noundef %2, i32 noundef %78, ptr noundef %0, i32 noundef %69, i32 noundef 1, i32 noundef 0)
  %80 = load i32, ptr @hf_mpeg_descr_satellite_delivery_modulation_type, align 4
  %81 = tail call ptr @proto_tree_add_item(ptr noundef %2, i32 noundef %80, ptr noundef %0, i32 noundef %69, i32 noundef 1, i32 noundef 0)
  %82 = add i32 %1, 7
  %83 = tail call zeroext i8 @tvb_get_uint8(ptr noundef %0, i32 noundef %82)
  %84 = lshr i8 %83, 4
  %narrow85 = mul nuw i8 %84, 10
  %85 = zext i8 %narrow85 to i32
  %86 = tail call zeroext i8 @tvb_get_uint8(ptr noundef %0, i32 noundef %82)
  %87 = and i8 %86, 15
  %88 = zext nneg i8 %87 to i32
  %89 = add nuw nsw i32 %85, %88
  %90 = uitofp nneg i32 %89 to double
  %91 = add i32 %1, 8
  %92 = tail call zeroext i8 @tvb_get_uint8(ptr noundef %0, i32 noundef %91)
  %93 = lshr i8 %92, 4
  %narrow86 = mul nuw i8 %93, 10
  %94 = zext i8 %narrow86 to i32
  %95 = tail call zeroext i8 @tvb_get_uint8(ptr noundef %0, i32 noundef %91)
  %96 = and i8 %95, 15
  %97 = zext nneg i8 %96 to i32
  %98 = add nuw nsw i32 %94, %97
  %99 = uitofp nneg i32 %98 to double
  %100 = fdiv double %99, 1.000000e+01
  %101 = tail call double @llvm.fmuladd.f64(double %90, double 1.000000e+01, double %100)
  %102 = add i32 %1, 9
  %103 = tail call zeroext i8 @tvb_get_uint8(ptr noundef %0, i32 noundef %102)
  %104 = lshr i8 %103, 4
  %narrow87 = mul nuw i8 %104, 10
  %105 = zext i8 %narrow87 to i32
  %106 = tail call zeroext i8 @tvb_get_uint8(ptr noundef %0, i32 noundef %102)
  %107 = and i8 %106, 15
  %108 = zext nneg i8 %107 to i32
  %109 = add nuw nsw i32 %105, %108
  %110 = uitofp nneg i32 %109 to double
  %111 = fdiv double %110, 1.000000e+03
  %112 = fadd double %101, %111
  %113 = add i32 %1, 10
  %114 = tail call zeroext i8 @tvb_get_uint8(ptr noundef %0, i32 noundef %113)
  %115 = tail call zeroext i8 @tvb_get_uint8(ptr noundef %0, i32 noundef %113)
  %116 = lshr i8 %115, 4
  %117 = uitofp nneg i8 %116 to double
  %118 = fdiv double %117, 1.000000e+04
  %119 = fadd double %118, %112
  %120 = load i32, ptr @hf_mpeg_descr_satellite_delivery_symbol_rate, align 4
  %121 = tail call ptr (ptr, i32, ptr, i32, i32, double, ptr, ...) @proto_tree_add_double_format_value(ptr noundef %2, i32 noundef %120, ptr noundef %0, i32 noundef %82, i32 noundef 4, double noundef %119, ptr noundef nonnull @.str.748, double noundef %119)
  %122 = load i32, ptr @hf_mpeg_descr_satellite_delivery_fec_inner, align 4
  %123 = tail call ptr @proto_tree_add_item(ptr noundef %2, i32 noundef %122, ptr noundef %0, i32 noundef %113, i32 noundef 1, i32 noundef 0)
  ret void
}